Certificate:
    Data:
        Version: 3 (0x2)
        Serial Number: 6 (0x6)
        Signature Algorithm: sha256WithRSAEncryption
        Issuer: C=US, ST=California, L=Sacramento, O=AuthHub, OU=Engineering, CN=ROOT CA
        Validity
            Not Before: Oct 19 00:01:46 2015 GMT
            Not After : Oct 18 00:01:46 2016 GMT
        Subject: C=US, ST=California, O=AuthHub, OU=Engineering, CN=AuthHub Demo Client
        Subject Public Key Info:
            Public Key Algorithm: rsaEncryption
            RSA Public Key: (2048 bit)
                Modulus (2048 bit):
                    00:ac:25:a2:a9:8f:b7:37:10:7a:20:01:0b:98:37:
                    14:8f:1f:ca:06:4e:b7:81:8b:4b:80:5e:77:44:6f:
                    77:11:4b:ae:29:e0:9f:c7:08:cf:35:5e:d4:a5:16:
                    f6:56:d3:37:37:7c:14:01:5b:d3:46:48:ff:c5:bd:
                    6e:ed:9b:67:a2:51:bd:2e:23:bb:d8:b4:c2:6e:9d:
                    b6:22:74:2e:10:09:9b:f2:56:04:9f:ec:5f:74:2b:
                    78:2c:39:df:7b:df:bd:dd:55:33:d0:12:95:79:4e:
                    d2:67:91:ac:c1:04:41:7a:33:a0:ba:ce:a1:88:90:
                    2b:07:1c:b7:1b:4e:af:b3:a3:b3:e7:c5:90:57:15:
                    c5:97:4a:33:af:d2:cf:0f:54:38:eb:ed:42:d7:12:
                    11:78:83:8e:54:16:de:d4:86:3a:72:62:f6:97:36:
                    04:d2:2b:53:9c:91:0f:80:f8:33:b7:f6:29:79:91:
                    6e:f2:e9:bc:97:71:b3:f0:14:aa:a6:3b:07:4b:c1:
                    df:5a:6f:cd:2f:5d:98:b3:85:5a:15:56:e9:78:0e:
                    ba:d3:ca:e4:ea:66:27:14:17:b9:23:2c:66:e1:d8:
                    1c:bd:b1:d8:04:ff:63:41:55:3f:cd:50:68:7a:d7:
                    5e:74:b6:e5:40:76:4c:7e:84:63:7b:c0:bb:a1:cb:
                    22:a5
                Exponent: 65537 (0x10001)
        X509v3 extensions:
            X509v3 Basic Constraints: 
                CA:FALSE
            X509v3 Key Usage: 
                Digital Signature, Non Repudiation, Key Encipherment
            X509v3 Extended Key Usage: 
                TLS Web Client Authentication
    Signature Algorithm: sha256WithRSAEncryption
        86:44:dc:b9:84:27:c6:37:ca:a0:18:5e:43:6a:de:cb:3f:56:
        68:32:cd:2f:dc:ac:80:d4:d7:7f:e7:f5:e1:b7:95:8a:2c:2d:
        19:55:c0:59:ce:86:bf:fa:33:e1:2f:03:c3:66:33:9d:30:01:
        00:c0:b8:bc:cd:29:91:af:ad:47:10:79:12:b2:bc:bc:f6:fa:
        15:c6:65:9d:9c:bb:fe:c3:de:9b:23:a4:b2:73:8d:ca:20:85:
        b4:27:d1:8b:4e:e3:74:02:4d:da:9a:10:22:c1:c4:85:cd:22:
        b3:32:f2:0c:46:17:72:c2:4c:6c:0c:55:46:70:48:37:e7:fd:
        56:39
-----BEGIN CERTIFICATE-----
MIIDAjCCAmugAwIBAgIBBjANBgkqhkiG9w0BAQsFADBxMQswCQYDVQQGEwJVUzET
MBEGA1UECBMKQ2FsaWZvcm5pYTETMBEGA1UEBxMKU2FjcmFtZW50bzEQMA4GA1UE
ChMHQXV0aEh1YjEUMBIGA1UECxMLRW5naW5lZXJpbmcxEDAOBgNVBAMTB1JPT1Qg
Q0EwHhcNMTUxMDE5MDAwMTQ2WhcNMTYxMDE4MDAwMTQ2WjBoMQswCQYDVQQGEwJV
UzETMBEGA1UECBMKQ2FsaWZvcm5pYTEQMA4GA1UEChMHQXV0aEh1YjEUMBIGA1UE
CxMLRW5naW5lZXJpbmcxHDAaBgNVBAMTE0F1dGhIdWIgRGVtbyBDbGllbnQwggEi
MA0GCSqGSIb3DQEBAQUAA4IBDwAwggEKAoIBAQCsJaKpj7c3EHogAQuYNxSPH8oG
TreBi0uAXndEb3cRS64p4J/HCM81XtSlFvZW0zc3fBQBW9NGSP/FvW7tm2eiUb0u
I7vYtMJunbYidC4QCZvyVgSf7F90K3gsOd97373dVTPQEpV5TtJnkazBBEF6M6C6
zqGIkCsHHLcbTq+zo7PnxZBXFcWXSjOv0s8PVDjr7ULXEhF4g45UFt7UhjpyYvaX
NgTSK1OckQ+A+DO39il5kW7y6byXcbPwFKqmOwdLwd9ab80vXZizhVoVVul4DrrT
yuTqZicUF7kjLGbh2By9sdgE/2NBVT/NUGh61150tuVAdkx+hGN7wLuhyyKlAgMB
AAGjLzAtMAkGA1UdEwQCMAAwCwYDVR0PBAQDAgXgMBMGA1UdJQQMMAoGCCsGAQUF
BwMCMA0GCSqGSIb3DQEBCwUAA4GBAIZE3LmEJ8Y3yqAYXkNq3ss/VmgyzS/crIDU
13/n9eG3lYosLRlVwFnOhr/6M+EvA8NmM50wAQDAuLzNKZGvrUcQeRKyvLz2+hXG
ZZ2cu/7D3psjpLJzjcoghbQn0YtO43QCTdqaECLBxIXNIrMy8gxGF3LCTGwMVUZw
SDfn/VY5
-----END CERTIFICATE-----
